target datalayout = "e-m:e-p270:32:32-p271:32:32-p272:64:64-i64:64-i128:128-f80:128-n8:16:32:64-S128"
target triple = "x86_64-pc-linux-gnu"

; Function Attrs: mustprogress nounwind uwtable
define hidden noundef i32 @_Z11apply_minusN2lp16lconstraint_kindE(i32 noundef %0) #4 {
  %2 = alloca i32, align 4
  %3 = alloca i32, align 4
  store i32 %0, ptr %3, align 4, !tbaa !269
  %4 = load i32, ptr %3, align 4, !tbaa !269
  switch i32 %4, label %9 [
    i32 -2, label %5
    i32 -1, label %6
    i32 2, label %7
    i32 1, label %8
  ]

5:                                                ; preds = %1
  store i32 2, ptr %2, align 4
  br label %12

6:                                                ; preds = %1
  store i32 1, ptr %2, align 4
  br label %12

7:                                                ; preds = %1
  store i32 -2, ptr %2, align 4
  br label %12

8:                                                ; preds = %1
  store i32 -1, ptr %2, align 4
  br label %12

9:                                                ; preds = %1
  br label %10

10:                                               ; preds = %9
  %11 = load i32, ptr %3, align 4, !tbaa !269
  store i32 %11, ptr %2, align 4
  br label %12

12:                                               ; preds = %10, %8, %7, %6, %5
  %13 = load i32, ptr %2, align 4
  ret i32 %13
}