; Function Attrs: mustprogress nofree norecurse nosync nounwind willreturn memory(none) uwtable
define hidden noundef i32 @_Z11apply_minusN2lp16lconstraint_kindE(i32 noundef %0) local_unnamed_addr #12 {
  %switch.tableidx = add i32 %0, 2
  %2 = icmp ult i32 %switch.tableidx, 5
  br i1 %2, label %switch.hole_check, label %4

switch.hole_check:                                ; preds = %1
  %switch.maskindex = trunc nuw i32 %switch.tableidx to i8
  %switch.shifted = lshr i8 27, %switch.maskindex
  %switch.lobit = trunc i8 %switch.shifted to i1
  br i1 %switch.lobit, label %switch.lookup, label %4

switch.lookup:                                    ; preds = %switch.hole_check
  %3 = zext nneg i32 %switch.tableidx to i64
  %switch.gep = getelementptr inbounds nuw [5 x i32], ptr @switch.table._Z11apply_minusN2lp16lconstraint_kindE, i64 0, i64 %3
  %switch.load = load i32, ptr %switch.gep, align 4
  br label %4

4:                                                ; preds = %1, %switch.hole_check, %switch.lookup
  %.0 = phi i32 [ %switch.load, %switch.lookup ], [ %0, %switch.hole_check ], [ %0, %1 ]
  ret i32 %.0
}